(dp1
I0
F1.8
sI1
F2.0080645161290325
sI2
F1.9024390243902438
sI3
F2.057377049180328
sI4
F2.141025641025641
sI5
F0
sI6
F2.2434210526315788
sI7
F1.9148936170212767
sI8
F2.4347826086956523
sI9
F2.0106382978723403
sI10
F2.0963855421686746
sI11
F2.1590909090909092
sI12
F2.1413043478260869
sI13
F2.171875
sI14
F-0.81081081081081086
sI15
F2.0795454545454546
sI16
F2.3421052631578947
sI17
F2.0540540540540539
sI18
F1.9555555555555555
sI19
F2.4166666666666665
sI20
F2.1473684210526316
sI21
F2.1547619047619047
sI22
F1.7040816326530612
sI23
F2.2777777777777777
sI24
F1.9816513761467891
sI25
F2.2471910112359552
sI26
F-1.5
sI27
F1.875
sI28
F2.3297872340425534
sI29
F2.4393939393939394
sI30
F-0.75862068965517238
sI31
F2.390625
sI32
F2.5
sI33
F1.5238095238095237
sI34
F-0.435
sI35
F2.5116279069767442
sI36
F2.7529411764705882
sI37
F1.5694444444444444
sI38
F2.3456790123456792
sI39
F2.7638888888888888
sI40
F2.5531914893617023
sI41
F0.75
sI42
F2.5288461538461537
sI43
F2.5108695652173911
sI44
F0.44692737430167595
sI45
F2.0952380952380953
sI46
F2.1458333333333335
sI47
F2.3943661971830985
sI48
F2.3209876543209877
sI49
F2.2807017543859649
sI50
F2.5
sI51
F2.1777777777777776
sI52
F2.0384615384615383
sI53
F2.323809523809524
sI54
F2.4637681159420288
sI55
F2.2980769230769229
sI56
F2.8405797101449277
sI57
F2.074074074074074
sI58
F-0.95652173913043481
sI59
F1.7435897435897436
sI60
F1.935483870967742
sI61
F4.3550295857988166
sI62
F2.411111111111111
sI63
F2.3013698630136985
sI64
F1.8918918918918919
sI65
F1.236842105263158
sI66
F2.1322314049586777
sI67
F2.3414634146341462
sI68
F1.7380952380952381
sI69
F2.5542168674698793
sI70
F2.596774193548387
sI71
F2.1538461538461537
sI72
F1.5407407407407407
sI73
F2.3076923076923075
sI74
F2.1842105263157894
sI75
F2.5063291139240507
sI76
F2.3676470588235294
sI77
F2.5333333333333332
sI78
F2.4745762711864407
sI79
F1.7837837837837838
sI80
F2.2659574468085109
sI81
F1.3
sI82
F2.1911764705882355
sI83
F2.1742424242424243
sI84
F2.1538461538461537
sI85
F2.1756756756756759
sI86
F2.3278688524590163
sI87
F-0.375
sI88
F2.1081081081081079
sI89
F2.3557692307692308
sI90
F2.5283018867924527
sI91
F2.8333333333333335
sI92
F2.4696969696969697
sI93
F2.2924528301886791
sI94
F1.75
sI95
F2.2325581395348837
sI96
F2.2933333333333334
sI97
F2.4268292682926829
sI98
F2.3303571428571428
sI99
F2.1931818181818183
sI100
F0.69613259668508287
sI101
F2.4210526315789473
sI102
F2.4310344827586206
sI103
F2.3373493975903616
sI104
F2.3518518518518516
sI105
F2.3999999999999999
sI106
F2.2551020408163267
sI107
F2.2650602409638556
sI108
F2.1052631578947367
sI109
F2.3275862068965516
sI110
F2.1400000000000001
sI111
F2.1847826086956523
sI112
F2.3297872340425534
sI113
F2.2133333333333334
sI114
F1.8709677419354838
sI115
F-0.15517241379310345
sI116
F2.3369565217391304
sI117
F1.98
sI118
F1.9310344827586208
sI119
F2.896551724137931
sI120
F2.1923076923076925
sI121
F2.3999999999999999
sI122
F2.2782608695652176
sI123
F2.341880341880342
sI124
F2.3571428571428572
sI125
F2.1538461538461537
sI126
F2.0533333333333332
sI127
F2.3373493975903616
sI128
F2.1190476190476191
sI129
F0.088888888888888892
sI130
F2.411111111111111
sI131
F2.3492063492063493
sI132
F1.5
sI133
F2.5957446808510638
sI134
F2.0208333333333335
sI135
F2.4300000000000002
sI136
F2.3999999999999999
sI137
F2.2906976744186047
sI138
F2.3039215686274508
sI139
F1.4166666666666667
sI140
F2.5
sI141
F2.4299065420560746
sI142
F2.0298507462686568
sI143
F2.4102564102564101
sI144
F2.5
sI145
F2.0229885057471266
s.