(dp1
I0
F1.8888888888888888
sI1
F1.375
sI2
F2.2471910112359552
sI3
F1.5820895522388059
sI4
F0.35185185185185186
sI5
F1.3984962406015038
sI6
F-1.0769230769230769
sI7
F2.0128205128205128
sI8
F1.5294117647058822
sI9
F0.66666666666666663
sI10
F1.1166666666666667
sI11
F1.3981481481481481
sI12
F2.15625
sI13
F2.3166666666666669
sI14
F2.3199999999999998
sI15
F2.9333333333333331
sI16
F2.3250000000000002
sI17
F1.8640776699029127
sI18
F2.4415584415584415
sI19
F1.95
sI20
F1.7739130434782608
sI21
F1.388235294117647
sI22
F2.7596153846153846
sI23
F3.4473684210526314
sI24
F3.6818181818181817
sI25
F3.8055555555555554
sI26
F2.2127659574468086
sI27
F1.552
sI28
F3.8888888888888888
sI29
F1.5740740740740742
sI30
F0.30656934306569344
sI31
F1.935483870967742
sI32
F0.890625
sI33
F1.3088235294117647
sI34
F4
sI35
F3.5499999999999998
sI36
F1.3
sI37
F0.98630136986301364
sI38
F1.6140350877192982
sI39
F1.1200000000000001
sI40
F1.0666666666666667
sI41
F2.9285714285714284
sI42
F0.88524590163934425
sI43
F1.3559322033898304
sI44
F1.1384615384615384
sI45
F-2
sI46
F-0.97499999999999998
sI47
F2.0227272727272729
sI48
F0.79870129870129869
sI49
F1.5
sI50
F0.25157232704402516
sI51
F3.3658536585365852
sI52
F1.7962962962962963
sI53
F2.5681818181818183
sI54
F1.7976190476190477
sI55
F1.6111111111111112
sI56
F0.90740740740740744
sI57
F2.8409090909090908
sI58
F1.6585365853658536
sI59
F0.45901639344262296
sI60
F1.2439024390243902
sI61
F1.751937984496124
sI62
F2.3666666666666667
sI63
F1.0196078431372548
sI64
F1.0469798657718121
sI65
F0.69902912621359226
sI66
F0.27160493827160492
sI67
F4.5625
sI68
F-0.28499999999999998
sI69
F0.15625
sI70
F-0.0059523809523809521
sI71
F0.4946236559139785
sI72
F0.56074766355140182
sI73
F2.125
sI74
F0.40104166666666669
sI75
F0.40500000000000003
sI76
F0.67500000000000004
sI77
F0.82499999999999996
sS'Testing8'
p2
F0.63694267515923564
sS'Testing9'
p3
F0.99337748344370858
sS'Testing4'
p4
F3.2941176470588234
sS'Testing5'
p5
F0.46994535519125685
sS'Testing6'
p6
F0.315
sS'Testing7'
p7
F1.1162790697674418
sS'Testing0'
p8
F4.5
sS'Testing1'
p9
F0.91764705882352937
sS'Testing2'
p10
F1.6491228070175439
sS'Testing3'
p11
F3.0789473684210527
sS'Testing16'
p12
F0
sS'Testing17'
p13
F1.3475177304964538
sS'Testing14'
p14
F0.70499999999999996
sS'Testing15'
p15
F0.14965986394557823
sS'Testing12'
p16
F-0.70833333333333337
sS'Testing13'
p17
F1.8289473684210527
sS'Testing10'
p18
F0.44897959183673469
sS'Testing11'
p19
F-0.93000000000000005
sS'Testing18'
p20
F1.1186440677966101
sS'Testing19'
p21
F0.98630136986301364
sS'Testing21'
p22
F1.326086956521739
sS'Testing20'
p23
F0.79012345679012341
s.