(dp1
I0
F-0.91000000000000003
sI1
F-0.91500000000000004
sI2
F-0.91500000000000004
sI3
F-1.0049999999999999
sI4
F-1.0049999999999999
sI5
F-0.97499999999999998
sI6
F-1.0049999999999999
sI7
F-1.0049999999999999
sI8
F-0.97499999999999998
sI9
F-1.0049999999999999
sI10
F0.40909090909090912
sI11
F-0.89102564102564108
sI12
F0.22500000000000001
sI13
F1.9175257731958764
sI14
F0.21359223300970873
sI15
F-0.52500000000000002
sI16
F-0.79500000000000004
sI17
F0.41145833333333331
sI18
F2.625
sI19
F1.7068965517241379
sI20
F2.4307692307692306
sI21
F0.62337662337662336
sI22
F-0.94499999999999995
sI23
F0.76500000000000001
sI24
F1.216
sI25
F1.4666666666666666
sI26
F-0.15789473684210525
sI27
F-0.43809523809523809
sI28
F-0.10416666666666667
sI29
F1.153061224489796
sI30
F1.4259259259259258
sI31
F2.1081081081081079
sI32
F1.3972602739726028
sI33
F1.4555555555555555
sI34
F1.7068965517241379
sI35
F1.6701030927835052
sI36
F1.6444444444444444
sI37
F1.7727272727272727
sI38
F1.5735294117647058
sI39
F1.6090909090909091
sI40
F1.1744186046511629
sI41
F1.8225806451612903
sI42
F1.8653846153846154
sI43
F1.5526315789473684
sI44
F1.6866666666666668
sI45
F1.4166666666666667
sI46
F1.75
sI47
F1.6287878787878789
sI48
F1.9512195121951219
sI49
F1.553030303030303
sI50
F1.6296296296296295
sI51
F1.6404494382022472
sI52
F1.5315315315315314
sI53
F-0.071428571428571425
sI54
F1.1341463414634145
sI55
F1.8333333333333333
sI56
F1.2083333333333333
sI57
F1.0874999999999999
sI58
F1.28125
sI59
F1.0898203592814371
sI60
F-2
sI61
F1.4903846153846154
sI62
F1.2395833333333333
sI63
F1.1554054054054055
sI64
F1.1730769230769231
sI65
F0.45070422535211269
sI66
F1.1317829457364341
sI67
F1.2026143790849673
sI68
F1.0212765957446808
sI69
F1.3374999999999999
sI70
F1.0416666666666667
sI71
F1.2272727272727273
sI72
F1.1307692307692307
sI73
F0.85416666666666663
sI74
F1.1208791208791209
sI75
F1.0825688073394495
sS'Testing8'
p2
F1.2934782608695652
sS'Testing9'
p3
F0.87962962962962965
sS'Testing4'
p4
F0.86274509803921573
sS'Testing5'
p5
F1.0909090909090908
sS'Testing6'
p6
F0.97115384615384615
sS'Testing7'
p7
F1.1707317073170731
sS'Testing0'
p8
F0.92592592592592593
sS'Testing1'
p9
F0.59589041095890416
sS'Testing2'
p10
F1.155
sS'Testing3'
p11
F1.1812080536912752
sS'Testing16'
p12
F0.949438202247191
sS'Testing17'
p13
F0.90853658536585369
sS'Testing14'
p14
F1.0406504065040652
sS'Testing15'
p15
F0.95454545454545459
sS'Testing12'
p16
F1.2916666666666667
sS'Testing13'
p17
F1.0566037735849056
sS'Testing10'
p18
F0.41975308641975306
sS'Testing11'
p19
F-0.45378151260504201
sS'Testing18'
p20
F0.63888888888888884
sS'Testing19'
p21
F0.97272727272727277
sS'Testing20'
p22
F0.72222222222222221
s.