(dp1
S'Testing8'
p2
F-1.0049999999999999
sS'Testing9'
p3
F-1.0049999999999999
sS'Testing4'
p4
F-0.97499999999999998
sS'Testing5'
p5
F-0.94499999999999995
sS'Testing6'
p6
F-0.97499999999999998
sS'Testing7'
p7
F-1.0049999999999999
sS'Testing0'
p8
F-0.93999999999999995
sS'Testing1'
p9
F-0.94499999999999995
sS'Testing2'
p10
F-1.0049999999999999
sS'Testing3'
p11
F-0.91500000000000004
s.